target datalayout = "e-m:e-p270:32:32-p271:32:32-p272:64:64-i64:64-i128:128-f80:128-n8:16:32:64-S128"
target triple = "x86_64-pc-linux-gnu"

@noise = internal global i8 0, align 1
@.str.79 = private unnamed_addr constant [16 x i8] c"empty file name\00", align 1
@.str.80 = private unnamed_addr constant [31 x i8] c"file name '%s' begins with '/'\00", align 1
@.str.81 = private unnamed_addr constant [29 x i8] c"file name '%s' contains '//'\00", align 1
@.str.82 = private unnamed_addr constant [29 x i8] c"file name '%s' ends with '/'\00", align 1
@.str.83 = private unnamed_addr constant [41 x i8] c"file name '%s' contains '%.*s' component\00", align 1
@.str.84 = private unnamed_addr constant [46 x i8] c"file name '%s' component contains leading '-'\00", align 1
@.str.85 = private unnamed_addr constant [55 x i8] c"file name '%s' contains overlength component '%.*s...'\00", align 1

; Function Attrs: nounwind uwtable
define internal zeroext i1 @componentcheck(ptr noundef %0, ptr noundef %1, ptr noundef %2) #0 {
  %4 = alloca i1, align 1
  %5 = alloca ptr, align 8
  %6 = alloca ptr, align 8
  %7 = alloca ptr, align 8
  %8 = alloca i64, align 8
  %9 = alloca i32, align 4
  %10 = alloca i32, align 4
  store ptr %0, ptr %5, align 8
  store ptr %1, ptr %6, align 8
  store ptr %2, ptr %7, align 8
  call void @llvm.lifetime.start.p0(i64 8, ptr %8) #13
  %11 = load ptr, ptr %7, align 8
  %12 = load ptr, ptr %6, align 8
  %13 = ptrtoint ptr %11 to i64
  %14 = ptrtoint ptr %12 to i64
  %15 = sub i64 %13, %14
  store i64 %15, ptr %8, align 8
  %16 = load i64, ptr %8, align 8
  %17 = icmp eq i64 %16, 0
  br i1 %17, label %18, label %38

18:                                               ; preds = %3
  %19 = load ptr, ptr %5, align 8
  %20 = load i8, ptr %19, align 1
  %21 = icmp ne i8 %20, 0
  br i1 %21, label %23, label %22

22:                                               ; preds = %18
  call void (ptr, ...) @error(ptr noundef @.str.79)
  br label %37

23:                                               ; preds = %18
  %24 = load ptr, ptr %6, align 8
  %25 = load ptr, ptr %5, align 8
  %26 = icmp eq ptr %24, %25
  br i1 %26, label %27, label %28

27:                                               ; preds = %23
  br label %34

28:                                               ; preds = %23
  %29 = load ptr, ptr %7, align 8
  %30 = load i8, ptr %29, align 1
  %31 = sext i8 %30 to i32
  %32 = icmp ne i32 %31, 0
  %33 = select i1 %32, ptr @.str.81, ptr @.str.82
  br label %34

34:                                               ; preds = %28, %27
  %35 = phi ptr [ @.str.80, %27 ], [ %33, %28 ]
  %36 = load ptr, ptr %5, align 8
  call void (ptr, ...) @error(ptr noundef %35, ptr noundef %36)
  br label %37

37:                                               ; preds = %34, %22
  store i1 false, ptr %4, align 1
  store i32 1, ptr %9, align 4
  br label %84

38:                                               ; preds = %3
  %39 = load i64, ptr %8, align 8
  %40 = icmp slt i64 0, %39
  br i1 %40, label %41, label %62

41:                                               ; preds = %38
  %42 = load i64, ptr %8, align 8
  %43 = icmp sle i64 %42, 2
  br i1 %43, label %44, label %62

44:                                               ; preds = %41
  %45 = load ptr, ptr %6, align 8
  %46 = getelementptr inbounds i8, ptr %45, i64 0
  %47 = load i8, ptr %46, align 1
  %48 = sext i8 %47 to i32
  %49 = icmp eq i32 %48, 46
  br i1 %49, label %50, label %62

50:                                               ; preds = %44
  %51 = load ptr, ptr %7, align 8
  %52 = getelementptr inbounds i8, ptr %51, i64 -1
  %53 = load i8, ptr %52, align 1
  %54 = sext i8 %53 to i32
  %55 = icmp eq i32 %54, 46
  br i1 %55, label %56, label %62

56:                                               ; preds = %50
  call void @llvm.lifetime.start.p0(i64 4, ptr %10) #13
  %57 = load i64, ptr %8, align 8
  %58 = trunc i64 %57 to i32
  store i32 %58, ptr %10, align 4
  %59 = load ptr, ptr %5, align 8
  %60 = load i32, ptr %10, align 4
  %61 = load ptr, ptr %6, align 8
  call void (ptr, ...) @error(ptr noundef @.str.83, ptr noundef %59, i32 noundef %60, ptr noundef %61)
  store i1 false, ptr %4, align 1
  store i32 1, ptr %9, align 4
  call void @llvm.lifetime.end.p0(i64 4, ptr %10) #13
  br label %84

62:                                               ; preds = %50, %44, %41, %38
  %63 = load i8, ptr @noise, align 1, !range !6, !noundef !7
  %64 = trunc i8 %63 to i1
  br i1 %64, label %65, label %83

65:                                               ; preds = %62
  %66 = load i64, ptr %8, align 8
  %67 = icmp slt i64 0, %66
  br i1 %67, label %68, label %76

68:                                               ; preds = %65
  %69 = load ptr, ptr %6, align 8
  %70 = getelementptr inbounds i8, ptr %69, i64 0
  %71 = load i8, ptr %70, align 1
  %72 = sext i8 %71 to i32
  %73 = icmp eq i32 %72, 45
  br i1 %73, label %74, label %76

74:                                               ; preds = %68
  %75 = load ptr, ptr %5, align 8
  call void (ptr, ...) @warning(ptr noundef @.str.84, ptr noundef %75)
  br label %76

76:                                               ; preds = %74, %68, %65
  %77 = load i64, ptr %8, align 8
  %78 = icmp slt i64 14, %77
  br i1 %78, label %79, label %82

79:                                               ; preds = %76
  %80 = load ptr, ptr %5, align 8
  %81 = load ptr, ptr %6, align 8
  call void (ptr, ...) @warning(ptr noundef @.str.85, ptr noundef %80, i32 noundef 14, ptr noundef %81)
  br label %82

82:                                               ; preds = %79, %76
  br label %83

83:                                               ; preds = %82, %62
  store i1 true, ptr %4, align 1
  store i32 1, ptr %9, align 4
  br label %84

84:                                               ; preds = %83, %56, %37
  call void @llvm.lifetime.end.p0(i64 8, ptr %8) #13
  %85 = load i1, ptr %4, align 1
  ret i1 %85
}