; Function Attrs: nounwind uwtable
define internal fastcc noundef zeroext i1 @componentcheck(ptr noundef %0, ptr noundef %1, ptr noundef %2) unnamed_addr #0 {
  %4 = ptrtoint ptr %2 to i64
  %5 = ptrtoint ptr %1 to i64
  %6 = sub i64 %4, %5
  %7 = icmp eq ptr %2, %1
  br i1 %7, label %8, label %18

8:                                                ; preds = %3
  %9 = load i8, ptr %0, align 1
  %.not = icmp eq i8 %9, 0
  br i1 %.not, label %10, label %11

10:                                               ; preds = %8
  tail call void (ptr, ...) @error(ptr noundef nonnull @.str.79)
  br label %.thread

11:                                               ; preds = %8
  %12 = icmp eq ptr %2, %0
  br i1 %12, label %16, label %13

13:                                               ; preds = %11
  %14 = load i8, ptr %2, align 1
  %.not25 = icmp eq i8 %14, 0
  %15 = select i1 %.not25, ptr @.str.82, ptr @.str.81
  br label %16

16:                                               ; preds = %11, %13
  %17 = phi ptr [ %15, %13 ], [ @.str.80, %11 ]
  tail call void (ptr, ...) @error(ptr noundef nonnull %17, ptr noundef nonnull %0)
  br label %.thread

18:                                               ; preds = %3
  %19 = icmp sgt i64 %6, 0
  %or.cond = icmp ult i64 %6, 3
  br i1 %or.cond, label %20, label %29

20:                                               ; preds = %18
  %21 = load i8, ptr %1, align 1
  %22 = icmp eq i8 %21, 46
  br i1 %22, label %23, label %29

23:                                               ; preds = %20
  %24 = getelementptr inbounds i8, ptr %2, i64 -1
  %25 = load i8, ptr %24, align 1
  %26 = icmp eq i8 %25, 46
  br i1 %26, label %27, label %29

27:                                               ; preds = %23
  %28 = trunc nuw nsw i64 %6 to i32
  tail call void (ptr, ...) @error(ptr noundef nonnull @.str.83, ptr noundef %0, i32 noundef %28, ptr noundef nonnull %1)
  br label %.thread

29:                                               ; preds = %23, %20, %18
  %.b24 = load i1, ptr @noise, align 1
  %brmerge.not = and i1 %19, %.b24
  br i1 %brmerge.not, label %30, label %.thread

30:                                               ; preds = %29
  %31 = load i8, ptr %1, align 1
  %32 = icmp eq i8 %31, 45
  br i1 %32, label %33, label %34

33:                                               ; preds = %30
  tail call void (ptr, ...) @warning(ptr noundef nonnull @.str.84, ptr noundef %0)
  br label %34

34:                                               ; preds = %33, %30
  %35 = icmp samesign ugt i64 %6, 14
  br i1 %35, label %36, label %.thread

36:                                               ; preds = %34
  tail call void (ptr, ...) @warning(ptr noundef nonnull @.str.85, ptr noundef %0, i32 noundef 14, ptr noundef nonnull %1)
  br label %.thread

.thread:                                          ; preds = %29, %36, %34, %10, %16, %27
  %.0 = phi i1 [ false, %27 ], [ false, %16 ], [ false, %10 ], [ true, %34 ], [ true, %36 ], [ true, %29 ]
  ret i1 %.0
}